target datalayout = "e-m:e-p270:32:32-p271:32:32-p272:64:64-i64:64-i128:128-f80:128-n8:16:32:64-S128"
target triple = "x86_64-pc-linux-gnu"

%struct.SurfaceDataRasInfo = type { %struct.SurfaceDataBounds, ptr, i32, i32, i32, i32, ptr, ptr, ptr, ptr, ptr, ptr, i32, %union.anon.0 }
%struct.SurfaceDataBounds = type { i32, i32, i32, i32 }
%union.anon.0 = type { ptr, [56 x i8] }

; Function Attrs: nounwind uwtable
define hidden void @ByteIndexedBmToUshortGrayXparOver(ptr noundef %0, ptr noundef %1, i32 noundef %2, i32 noundef %3, ptr noundef %4, ptr noundef %5, ptr noundef %6, ptr noundef %7) #1 {
  %9 = alloca ptr, align 8
  %10 = alloca ptr, align 8
  %11 = alloca i32, align 4
  %12 = alloca i32, align 4
  %13 = alloca ptr, align 8
  %14 = alloca ptr, align 8
  %15 = alloca ptr, align 8
  %16 = alloca ptr, align 8
  %17 = alloca [256 x i32], align 16
  %18 = alloca ptr, align 8
  %19 = alloca i32, align 4
  %20 = alloca ptr, align 8
  %21 = alloca i32, align 4
  %22 = alloca i32, align 4
  %23 = alloca i32, align 4
  %24 = alloca i32, align 4
  %25 = alloca i32, align 4
  %26 = alloca ptr, align 8
  %27 = alloca ptr, align 8
  %28 = alloca i32, align 4
  %29 = alloca i32, align 4
  %30 = alloca i32, align 4
  %31 = alloca i32, align 4
  store ptr %0, ptr %9, align 8
  store ptr %1, ptr %10, align 8
  store i32 %2, ptr %11, align 4
  store i32 %3, ptr %12, align 4
  store ptr %4, ptr %13, align 8
  store ptr %5, ptr %14, align 8
  store ptr %6, ptr %15, align 8
  store ptr %7, ptr %16, align 8
  br label %32

32:                                               ; preds = %8
  %33 = load ptr, ptr %13, align 8
  %34 = getelementptr inbounds %struct.SurfaceDataRasInfo, ptr %33, i32 0, i32 6
  %35 = load ptr, ptr %34, align 8
  store ptr %35, ptr %18, align 8
  %36 = load ptr, ptr %13, align 8
  %37 = getelementptr inbounds %struct.SurfaceDataRasInfo, ptr %36, i32 0, i32 5
  %38 = load i32, ptr %37, align 4
  store i32 %38, ptr %19, align 4
  %39 = load i32, ptr %19, align 4
  %40 = icmp uge i32 %39, 256
  br i1 %40, label %41, label %42

41:                                               ; preds = %32
  store i32 256, ptr %19, align 4
  br label %55

42:                                               ; preds = %32
  %43 = load i32, ptr %19, align 4
  %44 = zext i32 %43 to i64
  %45 = getelementptr inbounds [256 x i32], ptr %17, i64 0, i64 %44
  store ptr %45, ptr %20, align 8
  br label %46

46:                                               ; preds = %49, %42
  %47 = load ptr, ptr %20, align 8
  %48 = getelementptr inbounds i32, ptr %47, i64 0
  store i32 -1, ptr %48, align 4
  br label %49

49:                                               ; preds = %46
  %50 = load ptr, ptr %20, align 8
  %51 = getelementptr inbounds i32, ptr %50, i32 1
  store ptr %51, ptr %20, align 8
  %52 = getelementptr inbounds [256 x i32], ptr %17, i64 0, i64 256
  %53 = icmp ult ptr %51, %52
  br i1 %53, label %46, label %54, !llvm.loop !31

54:                                               ; preds = %49
  br label %55

55:                                               ; preds = %54, %41
  br label %56

56:                                               ; preds = %55
  store i32 0, ptr %21, align 4
  br label %57

57:                                               ; preds = %99, %56
  br label %58

58:                                               ; preds = %57
  %59 = load ptr, ptr %18, align 8
  %60 = load i32, ptr %21, align 4
  %61 = zext i32 %60 to i64
  %62 = getelementptr inbounds i32, ptr %59, i64 %61
  %63 = load i32, ptr %62, align 4
  store i32 %63, ptr %22, align 4
  %64 = load i32, ptr %22, align 4
  %65 = icmp slt i32 %64, 0
  br i1 %65, label %66, label %93

66:                                               ; preds = %58
  br label %67

67:                                               ; preds = %66
  br label %68

68:                                               ; preds = %67
  %69 = load i32, ptr %22, align 4
  %70 = and i32 %69, 255
  store i32 %70, ptr %25, align 4
  %71 = load i32, ptr %22, align 4
  %72 = ashr i32 %71, 8
  %73 = and i32 %72, 255
  store i32 %73, ptr %24, align 4
  %74 = load i32, ptr %22, align 4
  %75 = ashr i32 %74, 16
  %76 = and i32 %75, 255
  store i32 %76, ptr %23, align 4
  br label %77

77:                                               ; preds = %68
  %78 = load i32, ptr %23, align 4
  %79 = mul nsw i32 19672, %78
  %80 = load i32, ptr %24, align 4
  %81 = mul nsw i32 38621, %80
  %82 = add nsw i32 %79, %81
  %83 = load i32, ptr %25, align 4
  %84 = mul nsw i32 7500, %83
  %85 = add nsw i32 %82, %84
  %86 = sdiv i32 %85, 256
  %87 = trunc i32 %86 to i16
  %88 = zext i16 %87 to i32
  %89 = load i32, ptr %21, align 4
  %90 = zext i32 %89 to i64
  %91 = getelementptr inbounds [256 x i32], ptr %17, i64 0, i64 %90
  store i32 %88, ptr %91, align 4
  br label %92

92:                                               ; preds = %77
  br label %97

93:                                               ; preds = %58
  %94 = load i32, ptr %21, align 4
  %95 = zext i32 %94 to i64
  %96 = getelementptr inbounds [256 x i32], ptr %17, i64 0, i64 %95
  store i32 -1, ptr %96, align 4
  br label %97

97:                                               ; preds = %93, %92
  br label %98

98:                                               ; preds = %97
  br label %99

99:                                               ; preds = %98
  %100 = load i32, ptr %21, align 4
  %101 = add i32 %100, 1
  store i32 %101, ptr %21, align 4
  %102 = load i32, ptr %19, align 4
  %103 = icmp ult i32 %101, %102
  br i1 %103, label %57, label %104, !llvm.loop !32

104:                                              ; preds = %99
  br label %105

105:                                              ; preds = %104
  br label %106

106:                                              ; preds = %105
  br label %107

107:                                              ; preds = %106
  %108 = load ptr, ptr %9, align 8
  store ptr %108, ptr %26, align 8
  %109 = load ptr, ptr %10, align 8
  store ptr %109, ptr %27, align 8
  %110 = load ptr, ptr %13, align 8
  %111 = getelementptr inbounds %struct.SurfaceDataRasInfo, ptr %110, i32 0, i32 4
  %112 = load i32, ptr %111, align 8
  store i32 %112, ptr %28, align 4
  %113 = load ptr, ptr %14, align 8
  %114 = getelementptr inbounds %struct.SurfaceDataRasInfo, ptr %113, i32 0, i32 4
  %115 = load i32, ptr %114, align 8
  store i32 %115, ptr %29, align 4
  %116 = load i32, ptr %11, align 4
  %117 = mul i32 %116, 1
  %118 = load i32, ptr %28, align 4
  %119 = sub i32 %118, %117
  store i32 %119, ptr %28, align 4
  %120 = load i32, ptr %11, align 4
  %121 = mul i32 %120, 2
  %122 = load i32, ptr %29, align 4
  %123 = sub i32 %122, %121
  store i32 %123, ptr %29, align 4
  br label %124

124:                                              ; preds = %168, %107
  %125 = load i32, ptr %11, align 4
  store i32 %125, ptr %30, align 4
  br label %126

126:                                              ; preds = %151, %124
  br label %127

127:                                              ; preds = %126
  %128 = load ptr, ptr %26, align 8
  %129 = getelementptr inbounds i8, ptr %128, i64 0
  %130 = load i8, ptr %129, align 1
  %131 = zext i8 %130 to i64
  %132 = getelementptr inbounds [256 x i32], ptr %17, i64 0, i64 %131
  %133 = load i32, ptr %132, align 4
  store i32 %133, ptr %31, align 4
  %134 = load i32, ptr %31, align 4
  %135 = icmp slt i32 %134, 0
  br i1 %135, label %141, label %136

136:                                              ; preds = %127
  %137 = load i32, ptr %31, align 4
  %138 = trunc i32 %137 to i16
  %139 = load ptr, ptr %27, align 8
  %140 = getelementptr inbounds i16, ptr %139, i64 0
  store i16 %138, ptr %140, align 2
  br label %141

141:                                              ; preds = %136, %127
  br label %142

142:                                              ; preds = %141
  %143 = load ptr, ptr %26, align 8
  %144 = ptrtoint ptr %143 to i64
  %145 = add nsw i64 %144, 1
  %146 = inttoptr i64 %145 to ptr
  store ptr %146, ptr %26, align 8
  %147 = load ptr, ptr %27, align 8
  %148 = ptrtoint ptr %147 to i64
  %149 = add nsw i64 %148, 2
  %150 = inttoptr i64 %149 to ptr
  store ptr %150, ptr %27, align 8
  br label %151

151:                                              ; preds = %142
  %152 = load i32, ptr %30, align 4
  %153 = add i32 %152, -1
  store i32 %153, ptr %30, align 4
  %154 = icmp ugt i32 %153, 0
  br i1 %154, label %126, label %155, !llvm.loop !33

155:                                              ; preds = %151
  %156 = load ptr, ptr %26, align 8
  %157 = ptrtoint ptr %156 to i64
  %158 = load i32, ptr %28, align 4
  %159 = sext i32 %158 to i64
  %160 = add nsw i64 %157, %159
  %161 = inttoptr i64 %160 to ptr
  store ptr %161, ptr %26, align 8
  %162 = load ptr, ptr %27, align 8
  %163 = ptrtoint ptr %162 to i64
  %164 = load i32, ptr %29, align 4
  %165 = sext i32 %164 to i64
  %166 = add nsw i64 %163, %165
  %167 = inttoptr i64 %166 to ptr
  store ptr %167, ptr %27, align 8
  br label %168

168:                                              ; preds = %155
  %169 = load i32, ptr %12, align 4
  %170 = add i32 %169, -1
  store i32 %170, ptr %12, align 4
  %171 = icmp ugt i32 %170, 0
  br i1 %171, label %124, label %172, !llvm.loop !34

172:                                              ; preds = %168
  br label %173

173:                                              ; preds = %172
  ret void
}