; Function Attrs: nofree norecurse nosync nounwind memory(readwrite, inaccessiblemem: none) uwtable
define hidden void @ByteIndexedBmToUshortGrayXparOver(ptr noundef %0, ptr noundef %1, i32 noundef %2, i32 noundef %3, ptr nocapture noundef readonly %4, ptr nocapture noundef readonly %5, ptr nocapture readnone %6, ptr nocapture readnone %7) #1 {
  %9 = alloca [256 x i32], align 16
  %10 = getelementptr inbounds i8, ptr %4, i64 40
  %11 = load ptr, ptr %10, align 8
  %12 = getelementptr inbounds i8, ptr %4, i64 36
  %13 = load i32, ptr %12, align 4
  %14 = icmp ugt i32 %13, 255
  br i1 %14, label %.loopexit, label %.loopexit.loopexit

.loopexit.loopexit:                               ; preds = %8
  %15 = shl nuw nsw i32 %13, 2
  %.idx = zext nneg i32 %15 to i64
  %scevgep = getelementptr i8, ptr %9, i64 %.idx
  %16 = sub nuw nsw i64 1024, %.idx
  call void @llvm.memset.p0.i64(ptr align 4 %scevgep, i8 -1, i64 %16, i1 false)
  br label %.loopexit

.loopexit:                                        ; preds = %.loopexit.loopexit, %8
  %.043 = phi i32 [ 256, %8 ], [ %13, %.loopexit.loopexit ]
  %umax = tail call i32 @llvm.umax.i32(i32 %.043, i32 1)
  %wide.trip.count = zext nneg i32 %umax to i64
  br label %17

17:                                               ; preds = %33, %.loopexit
  %indvars.iv = phi i64 [ %indvars.iv.next, %33 ], [ 0, %.loopexit ]
  %18 = getelementptr inbounds i32, ptr %11, i64 %indvars.iv
  %19 = load i32, ptr %18, align 4
  %20 = icmp slt i32 %19, 0
  br i1 %20, label %21, label %33

21:                                               ; preds = %17
  %22 = and i32 %19, 255
  %23 = lshr i32 %19, 8
  %24 = and i32 %23, 255
  %25 = lshr i32 %19, 16
  %26 = and i32 %25, 255
  %27 = mul nuw nsw i32 %26, 19672
  %28 = mul nuw nsw i32 %24, 38621
  %29 = mul nuw nsw i32 %22, 7500
  %30 = add nuw nsw i32 %28, %29
  %31 = add nuw nsw i32 %30, %27
  %32 = lshr i32 %31, 8
  br label %33

33:                                               ; preds = %17, %21
  %.sink = phi i32 [ %32, %21 ], [ -1, %17 ]
  %34 = getelementptr inbounds [256 x i32], ptr %9, i64 0, i64 %indvars.iv
  store i32 %.sink, ptr %34, align 4
  %indvars.iv.next = add nuw nsw i64 %indvars.iv, 1
  %exitcond.not = icmp eq i64 %indvars.iv.next, %wide.trip.count
  br i1 %exitcond.not, label %35, label %17, !llvm.loop !29

35:                                               ; preds = %33
  %36 = getelementptr inbounds i8, ptr %4, i64 32
  %37 = load i32, ptr %36, align 8
  %38 = getelementptr inbounds i8, ptr %5, i64 32
  %39 = load i32, ptr %38, align 8
  %40 = sub i32 %37, %2
  %41 = shl i32 %2, 1
  %42 = sub i32 %39, %41
  %43 = sext i32 %40 to i64
  %44 = sext i32 %42 to i64
  br label %45

45:                                               ; preds = %62, %35
  %.041 = phi ptr [ %0, %35 ], [ %64, %62 ]
  %.040 = phi ptr [ %1, %35 ], [ %66, %62 ]
  %.0 = phi i32 [ %3, %35 ], [ %67, %62 ]
  br label %46

46:                                               ; preds = %54, %45
  %.142 = phi ptr [ %.041, %45 ], [ %57, %54 ]
  %.1 = phi ptr [ %.040, %45 ], [ %60, %54 ]
  %.039 = phi i32 [ %2, %45 ], [ %61, %54 ]
  %47 = load i8, ptr %.142, align 1
  %48 = zext i8 %47 to i64
  %49 = getelementptr inbounds [256 x i32], ptr %9, i64 0, i64 %48
  %50 = load i32, ptr %49, align 4
  %51 = icmp slt i32 %50, 0
  br i1 %51, label %54, label %52

52:                                               ; preds = %46
  %53 = trunc i32 %50 to i16
  store i16 %53, ptr %.1, align 2
  br label %54

54:                                               ; preds = %46, %52
  %55 = ptrtoint ptr %.142 to i64
  %56 = add nsw i64 %55, 1
  %57 = inttoptr i64 %56 to ptr
  %58 = ptrtoint ptr %.1 to i64
  %59 = add nsw i64 %58, 2
  %60 = inttoptr i64 %59 to ptr
  %61 = add i32 %.039, -1
  %.not = icmp eq i32 %61, 0
  br i1 %.not, label %62, label %46, !llvm.loop !30

62:                                               ; preds = %54
  %63 = add nsw i64 %56, %43
  %64 = inttoptr i64 %63 to ptr
  %65 = add nsw i64 %59, %44
  %66 = inttoptr i64 %65 to ptr
  %67 = add i32 %.0, -1
  %.not53 = icmp eq i32 %67, 0
  br i1 %.not53, label %68, label %45, !llvm.loop !31

68:                                               ; preds = %62
  ret void
}